#include <math.h>
#include <stdio.h>
#include <stdlib.h>
#include <string.h>

int main()
{
	int a[300],i,n,b[300],j,k,m;
	scanf("%d",&n);
	m=1;
	for(i=0;i<n;i++)
		scanf("%d",&a[i]);
	b[0]=a[0];
	for(i=1;i<n;i++)
	{
		k=i;
		for(j=0;j<i;j++)
		{
			if(a[j]!=a[i])
				k=k-1;
			else k=k;
			if (k==0)
			{
				b[m]=a[i];
				m++;
			}
		}
	}
		for(i=0;i<m-1;i++)
			printf("%d,",b[i]);
		printf("%d",b[m-1]);

}